; Function Attrs: nounwind uwtable
define internal noundef i32 @_update_assoc_for_each(ptr noundef %0, ptr noundef readnone captures(address) %1) #6 {
  %3 = getelementptr inbounds nuw i8, ptr %0, i64 72
  %4 = load ptr, ptr %3, align 8
  %5 = icmp eq ptr %1, %4
  br i1 %5, label %6, label %13

6:                                                ; preds = %2
  %7 = getelementptr inbounds nuw i8, ptr %0, i64 448
  %8 = load i32, ptr %7, align 8
  %9 = and i32 %8, 255
  %10 = icmp eq i32 %9, 0
  br i1 %10, label %11, label %13

11:                                               ; preds = %6
  %12 = tail call i32 @acct_policy_update_pending_job(ptr noundef nonnull %0) #19
  br label %13

13:                                               ; preds = %11, %6, %2
  ret i32 0
}